Certificate:
    Data:
        Version: 3 (0x2)
        Serial Number: 4096 (0x1000)
        Signature Algorithm: sha256WithRSAEncryption
        Issuer: CN=www.modelCA.com, O=Model CA LTD., C=US
        Validity
            Not Before: Nov  3 01:48:24 2023 GMT
            Not After : Oct 31 01:48:24 2033 GMT
        Subject: C=US, O=Banerjee2023 Inc., CN=www.banerjee2023.com
        Subject Public Key Info:
            Public Key Algorithm: rsaEncryption
                RSA Public-Key: (2048 bit)
                Modulus:
                    00:aa:9a:c2:fa:1e:2d:e3:da:43:48:ac:fb:35:7f:
                    2b:ca:4e:eb:25:dd:a7:14:71:61:02:20:bf:7b:11:
                    d4:5b:c3:b6:f0:61:3a:1c:d6:ef:5e:64:f3:96:94:
                    02:2c:94:3f:f8:e2:24:98:2a:af:6a:30:a3:d6:63:
                    bf:5b:a3:b8:38:df:2d:da:ac:60:bb:84:f5:7f:33:
                    03:d5:b0:86:5e:52:23:b9:e7:0c:d4:59:9b:18:86:
                    58:fe:22:a6:39:8c:19:cc:9b:19:14:96:5d:13:81:
                    b9:cf:fd:f5:17:0d:11:48:f9:13:be:40:eb:ab:3d:
                    cb:8c:b4:94:09:1c:41:a0:ea:a2:bc:14:b3:b0:b1:
                    c9:55:3e:b4:b6:73:c2:e4:ca:31:b7:0e:a5:ec:89:
                    e0:ca:e8:02:90:63:e9:48:8d:23:a0:b4:eb:85:20:
                    31:ce:c8:35:b1:2b:b0:8c:c2:9a:24:bd:3c:14:3a:
                    ea:84:9a:37:0e:bb:4d:ea:09:b1:e6:af:fa:c2:0d:
                    10:6b:84:6b:34:f1:aa:9f:af:c8:eb:5f:79:ec:1b:
                    a2:2e:49:f8:79:1c:a2:01:ef:98:83:35:46:48:13:
                    2b:da:e7:b6:2f:cf:b2:12:88:49:17:19:25:af:52:
                    2a:eb:f4:52:57:31:93:bc:d1:ab:9f:f4:ef:01:28:
                    5d:cb
                Exponent: 65537 (0x10001)
        X509v3 extensions:
            X509v3 Basic Constraints: 
                CA:FALSE
            Netscape Comment: 
                OpenSSL Generated Certificate
            X509v3 Subject Key Identifier: 
                C8:05:E4:74:4C:A3:9D:91:AA:2D:82:44:C8:2C:56:AA:0D:39:54:6A
            X509v3 Authority Key Identifier: 
                keyid:FD:81:8E:4C:FC:A2:AD:F2:65:05:88:EE:D0:E7:CF:36:B5:71:A2:99

            X509v3 Subject Alternative Name: 
                DNS:www.banerjee2023.com, DNS:www.banerjee2023A.com, DNS:www.banerjee2023B.com
    Signature Algorithm: sha256WithRSAEncryption
         0b:e8:4d:9e:82:f6:47:3c:61:65:1f:a4:fc:97:1f:b1:53:75:
         d6:78:38:a8:3a:7f:b0:30:07:a7:00:56:c8:57:d0:2f:44:e1:
         42:3f:6b:dd:78:a7:cf:45:61:56:cf:cf:cb:c5:3e:0f:c2:00:
         0f:55:99:d5:0c:64:3c:e3:bc:19:c6:5e:f3:6e:3c:4b:aa:c1:
         39:61:90:b3:f3:ed:68:fb:58:8a:ac:29:11:2d:1b:9f:96:33:
         98:fb:94:8e:c8:10:b2:66:3b:7d:ac:64:73:cb:b8:0a:4d:74:
         09:c0:55:fc:2c:55:28:31:f6:e1:0d:5a:49:c9:12:cc:2b:cd:
         60:ab:ad:6d:25:e5:bc:f6:84:4d:13:72:6a:80:32:2f:cd:76:
         65:24:e4:ff:65:66:b6:73:7f:b1:8f:d4:25:50:c8:f6:c1:d2:
         f9:54:08:e1:52:af:01:36:88:c0:c1:84:d9:46:d7:32:b2:9e:
         56:5a:cb:d8:19:59:14:19:97:62:35:c3:14:98:da:22:6c:68:
         b5:48:db:af:2c:60:08:60:bc:c6:16:ac:c5:e2:c9:a2:41:22:
         b3:16:60:1b:68:38:25:41:17:24:e8:72:83:11:a6:4e:14:ef:
         c0:2e:a1:da:e2:1b:d5:46:3a:42:d9:94:e1:87:de:3d:a2:cf:
         53:f6:20:90:59:4b:b9:27:8d:68:5f:4b:2c:f0:4e:1f:17:d7:
         b2:a3:09:7d:e4:f3:6d:e0:25:12:c1:75:19:e8:d9:79:0a:5a:
         ec:55:47:04:bd:f5:af:f8:5d:72:b2:84:ed:53:1b:e5:17:ef:
         09:1e:3c:04:c1:12:ff:0a:4b:4a:dc:61:8b:f6:be:69:f3:44:
         97:4f:93:c7:d0:df:ea:e8:b3:ba:99:7c:1c:54:31:99:b3:a4:
         7d:4c:9c:7f:d9:75:15:3e:c8:64:91:15:01:a6:1b:2b:d7:4f:
         61:f4:90:04:32:9a:74:f9:a2:4b:b6:40:ad:4e:33:4e:3c:eb:
         91:77:64:6c:2d:ba:4a:b1:e2:02:8b:d0:e1:4e:80:e5:e3:51:
         d7:ff:c6:ff:41:2e:c7:6f:4e:e0:92:28:44:55:41:46:df:ef:
         28:a2:c4:ec:ff:92:ca:97:7d:c4:18:19:6c:bf:ec:6b:7d:be:
         d1:82:f5:ad:4e:ec:2c:ad:d2:64:ec:1d:9b:63:5c:41:13:ba:
         00:b0:af:0d:08:f5:72:05:f5:cc:a8:b5:07:1f:9e:3b:77:61:
         98:47:97:ce:e9:d8:83:eb:02:fd:ce:88:bd:32:bd:ba:88:4d:
         28:1f:7c:b2:14:6d:4e:11:e7:06:7e:73:b0:08:b3:0b:e6:2c:
         14:c5:c1:c9:f6:11:a6:ba
-----BEGIN CERTIFICATE-----
MIIEzzCCAregAwIBAgICEAAwDQYJKoZIhvcNAQELBQAwPzEYMBYGA1UEAwwPd3d3
Lm1vZGVsQ0EuY29tMRYwFAYDVQQKDA1Nb2RlbCBDQSBMVEQuMQswCQYDVQQGEwJV
UzAeFw0yMzExMDMwMTQ4MjRaFw0zMzEwMzEwMTQ4MjRaMEgxCzAJBgNVBAYTAlVT
MRowGAYDVQQKDBFCYW5lcmplZTIwMjMgSW5jLjEdMBsGA1UEAwwUd3d3LmJhbmVy
amVlMjAyMy5jb20wggEiMA0GCSqGSIb3DQEBAQUAA4IBDwAwggEKAoIBAQCqmsL6
Hi3j2kNIrPs1fyvKTusl3acUcWECIL97EdRbw7bwYToc1u9eZPOWlAIslD/44iSY
Kq9qMKPWY79bo7g43y3arGC7hPV/MwPVsIZeUiO55wzUWZsYhlj+IqY5jBnMmxkU
ll0TgbnP/fUXDRFI+RO+QOurPcuMtJQJHEGg6qK8FLOwsclVPrS2c8LkyjG3DqXs
ieDK6AKQY+lIjSOgtOuFIDHOyDWxK7CMwpokvTwUOuqEmjcOu03qCbHmr/rCDRBr
hGs08aqfr8jrX3nsG6IuSfh5HKIB75iDNUZIEyva57Yvz7ISiEkXGSWvUirr9FJX
MZO80auf9O8BKF3LAgMBAAGjgcswgcgwCQYDVR0TBAIwADAsBglghkgBhvhCAQ0E
HxYdT3BlblNTTCBHZW5lcmF0ZWQgQ2VydGlmaWNhdGUwHQYDVR0OBBYEFMgF5HRM
o52Rqi2CRMgsVqoNOVRqMB8GA1UdIwQYMBaAFP2Bjkz8oq3yZQWI7tDnzza1caKZ
ME0GA1UdEQRGMESCFHd3dy5iYW5lcmplZTIwMjMuY29tghV3d3cuYmFuZXJqZWUy
MDIzQS5jb22CFXd3dy5iYW5lcmplZTIwMjNCLmNvbTANBgkqhkiG9w0BAQsFAAOC
AgEAC+hNnoL2RzxhZR+k/JcfsVN11ng4qDp/sDAHpwBWyFfQL0ThQj9r3Xinz0Vh
Vs/Py8U+D8IAD1WZ1QxkPOO8GcZe8248S6rBOWGQs/PtaPtYiqwpES0bn5YzmPuU
jsgQsmY7faxkc8u4Ck10CcBV/CxVKDH24Q1aSckSzCvNYKutbSXlvPaETRNyaoAy
L812ZSTk/2VmtnN/sY/UJVDI9sHS+VQI4VKvATaIwMGE2UbXMrKeVlrL2BlZFBmX
YjXDFJjaImxotUjbryxgCGC8xhasxeLJokEisxZgG2g4JUEXJOhygxGmThTvwC6h
2uIb1UY6QtmU4YfePaLPU/YgkFlLuSeNaF9LLPBOHxfXsqMJfeTzbeAlEsF1GejZ
eQpa7FVHBL31r/hdcrKE7VMb5RfvCR48BMES/wpLStxhi/a+afNEl0+Tx9Df6uiz
upl8HFQxmbOkfUycf9l1FT7IZJEVAaYbK9dPYfSQBDKadPmiS7ZArU4zTjzrkXdk
bC26SrHiAovQ4U6A5eNR1//G/0Eux29O4JIoRFVBRt/vKKLE7P+Sypd9xBgZbL/s
a32+0YL1rU7sLK3SZOwdm2NcQRO6ALCvDQj1cgX1zKi1Bx+eO3dhmEeXzunYg+sC
/c6IvTK9uohNKB98shRtThHnBn5zsAizC+YsFMXByfYRpro=
-----END CERTIFICATE-----
