Certificate:
    Data:
        Version: 3 (0x2)
        Serial Number: 4097 (0x1001)
        Signature Algorithm: sha256WithRSAEncryption
        Issuer: CN=www.modelCA.com, O=Model CA LTD., C=US
        Validity
            Not Before: Nov  3 02:28:17 2023 GMT
            Not After : Oct 31 02:28:17 2033 GMT
        Subject: C=US, O=Banerjee2023 Inc., CN=www.banerjee2023.com
        Subject Public Key Info:
            Public Key Algorithm: rsaEncryption
                RSA Public-Key: (2048 bit)
                Modulus:
                    00:aa:9a:c2:fa:1e:2d:e3:da:43:48:ac:fb:35:7f:
                    2b:ca:4e:eb:25:dd:a7:14:71:61:02:20:bf:7b:11:
                    d4:5b:c3:b6:f0:61:3a:1c:d6:ef:5e:64:f3:96:94:
                    02:2c:94:3f:f8:e2:24:98:2a:af:6a:30:a3:d6:63:
                    bf:5b:a3:b8:38:df:2d:da:ac:60:bb:84:f5:7f:33:
                    03:d5:b0:86:5e:52:23:b9:e7:0c:d4:59:9b:18:86:
                    58:fe:22:a6:39:8c:19:cc:9b:19:14:96:5d:13:81:
                    b9:cf:fd:f5:17:0d:11:48:f9:13:be:40:eb:ab:3d:
                    cb:8c:b4:94:09:1c:41:a0:ea:a2:bc:14:b3:b0:b1:
                    c9:55:3e:b4:b6:73:c2:e4:ca:31:b7:0e:a5:ec:89:
                    e0:ca:e8:02:90:63:e9:48:8d:23:a0:b4:eb:85:20:
                    31:ce:c8:35:b1:2b:b0:8c:c2:9a:24:bd:3c:14:3a:
                    ea:84:9a:37:0e:bb:4d:ea:09:b1:e6:af:fa:c2:0d:
                    10:6b:84:6b:34:f1:aa:9f:af:c8:eb:5f:79:ec:1b:
                    a2:2e:49:f8:79:1c:a2:01:ef:98:83:35:46:48:13:
                    2b:da:e7:b6:2f:cf:b2:12:88:49:17:19:25:af:52:
                    2a:eb:f4:52:57:31:93:bc:d1:ab:9f:f4:ef:01:28:
                    5d:cb
                Exponent: 65537 (0x10001)
        X509v3 extensions:
            X509v3 Basic Constraints: 
                CA:FALSE
            Netscape Comment: 
                OpenSSL Generated Certificate
            X509v3 Subject Key Identifier: 
                C8:05:E4:74:4C:A3:9D:91:AA:2D:82:44:C8:2C:56:AA:0D:39:54:6A
            X509v3 Authority Key Identifier: 
                keyid:FD:81:8E:4C:FC:A2:AD:F2:65:05:88:EE:D0:E7:CF:36:B5:71:A2:99

            X509v3 Subject Alternative Name: 
                DNS:www.banerjee2023.com, DNS:www.banerjee2023A.com, DNS:www.banerjee2023B.com
    Signature Algorithm: sha256WithRSAEncryption
         52:40:10:ba:6b:bd:dc:74:d7:ec:39:09:ca:a4:20:99:ca:ee:
         5e:06:06:3b:57:36:51:d0:53:fe:bd:6f:d6:d5:e2:76:ec:2b:
         b2:2b:a0:3b:f3:68:2d:3d:6c:53:78:c2:1e:4c:26:4f:40:e8:
         21:15:39:5c:3f:7d:99:26:f1:5a:81:a6:0b:6d:6b:f4:cd:62:
         cb:21:c2:54:91:d5:31:43:e0:d6:89:93:48:b0:6d:d8:92:a8:
         13:66:97:76:5d:0d:85:76:2d:d7:1a:70:d8:df:60:d4:9b:8b:
         41:da:6b:be:81:7b:e0:f7:4e:e8:f2:bb:02:12:5f:df:84:24:
         b1:59:9a:50:bb:e6:ae:28:0a:4a:25:94:2b:f9:b1:f1:45:bc:
         37:8d:87:f0:95:ba:0d:8d:d6:b5:4b:bd:a1:d4:70:be:b6:f9:
         6b:1d:6b:2c:a3:23:6e:67:e0:b6:2d:32:1e:61:a7:0a:5d:f9:
         a8:bf:21:c5:3a:80:5e:a2:f8:eb:28:ba:94:02:a6:8e:f5:31:
         5d:a0:2b:5e:b0:4e:3c:7a:1e:45:c2:d4:0c:c4:1b:1c:66:5a:
         9d:6f:e4:cf:91:4a:bd:1b:9a:fc:80:4f:af:ab:21:ee:e8:9d:
         5a:a5:de:41:a7:32:37:fc:dc:18:33:76:d8:d9:61:9c:c1:c2:
         5c:08:7b:7b:46:4e:8f:f6:5c:ca:56:e3:b5:0c:2b:e4:d7:9c:
         c4:36:38:a7:f6:17:91:1f:14:63:61:55:5b:26:a9:38:a3:cc:
         f7:d5:75:e1:31:79:a8:83:fc:b6:9a:46:8e:c1:d6:49:cd:bf:
         4d:79:f4:e5:39:e7:a5:c2:5d:b2:a8:c9:ea:21:45:47:80:1f:
         11:76:00:bc:bb:e9:10:32:6e:ee:e1:10:17:1c:de:82:b3:b4:
         47:32:97:7a:17:70:22:11:3b:90:47:9f:b9:8a:aa:ef:94:af:
         a3:09:5f:ad:ad:6a:86:49:fb:5c:e1:de:06:58:2a:c9:7f:de:
         ab:b4:8d:de:87:27:08:01:0b:35:e7:dc:b3:77:de:84:97:17:
         27:f0:02:97:78:e8:80:6c:54:da:42:3a:32:eb:09:3d:90:78:
         f9:db:98:b9:eb:be:19:b4:fc:16:fd:0f:2e:78:21:5f:9e:84:
         af:fb:b9:25:53:60:00:f1:e0:55:55:96:6b:f3:a2:ef:a5:9a:
         ef:88:92:c2:49:9d:d7:13:f2:9f:e9:d2:92:0a:25:d8:c0:fa:
         3b:01:6a:96:1e:b1:f1:8f:71:84:e3:f3:34:35:14:3f:c4:bb:
         ff:a2:53:a0:eb:49:d2:4e:bf:61:de:11:58:b3:a2:28:db:12:
         31:32:c7:d4:b3:d8:e1:ee
-----BEGIN CERTIFICATE-----
MIIEzzCCAregAwIBAgICEAEwDQYJKoZIhvcNAQELBQAwPzEYMBYGA1UEAwwPd3d3
Lm1vZGVsQ0EuY29tMRYwFAYDVQQKDA1Nb2RlbCBDQSBMVEQuMQswCQYDVQQGEwJV
UzAeFw0yMzExMDMwMjI4MTdaFw0zMzEwMzEwMjI4MTdaMEgxCzAJBgNVBAYTAlVT
MRowGAYDVQQKDBFCYW5lcmplZTIwMjMgSW5jLjEdMBsGA1UEAwwUd3d3LmJhbmVy
amVlMjAyMy5jb20wggEiMA0GCSqGSIb3DQEBAQUAA4IBDwAwggEKAoIBAQCqmsL6
Hi3j2kNIrPs1fyvKTusl3acUcWECIL97EdRbw7bwYToc1u9eZPOWlAIslD/44iSY
Kq9qMKPWY79bo7g43y3arGC7hPV/MwPVsIZeUiO55wzUWZsYhlj+IqY5jBnMmxkU
ll0TgbnP/fUXDRFI+RO+QOurPcuMtJQJHEGg6qK8FLOwsclVPrS2c8LkyjG3DqXs
ieDK6AKQY+lIjSOgtOuFIDHOyDWxK7CMwpokvTwUOuqEmjcOu03qCbHmr/rCDRBr
hGs08aqfr8jrX3nsG6IuSfh5HKIB75iDNUZIEyva57Yvz7ISiEkXGSWvUirr9FJX
MZO80auf9O8BKF3LAgMBAAGjgcswgcgwCQYDVR0TBAIwADAsBglghkgBhvhCAQ0E
HxYdT3BlblNTTCBHZW5lcmF0ZWQgQ2VydGlmaWNhdGUwHQYDVR0OBBYEFMgF5HRM
o52Rqi2CRMgsVqoNOVRqMB8GA1UdIwQYMBaAFP2Bjkz8oq3yZQWI7tDnzza1caKZ
ME0GA1UdEQRGMESCFHd3dy5iYW5lcmplZTIwMjMuY29tghV3d3cuYmFuZXJqZWUy
MDIzQS5jb22CFXd3dy5iYW5lcmplZTIwMjNCLmNvbTANBgkqhkiG9w0BAQsFAAOC
AgEAUkAQumu93HTX7DkJyqQgmcruXgYGO1c2UdBT/r1v1tXiduwrsiugO/NoLT1s
U3jCHkwmT0DoIRU5XD99mSbxWoGmC21r9M1iyyHCVJHVMUPg1omTSLBt2JKoE2aX
dl0NhXYt1xpw2N9g1JuLQdprvoF74PdO6PK7AhJf34QksVmaULvmrigKSiWUK/mx
8UW8N42H8JW6DY3WtUu9odRwvrb5ax1rLKMjbmfgti0yHmGnCl35qL8hxTqAXqL4
6yi6lAKmjvUxXaArXrBOPHoeRcLUDMQbHGZanW/kz5FKvRua/IBPr6sh7uidWqXe
QacyN/zcGDN22NlhnMHCXAh7e0ZOj/ZcylbjtQwr5NecxDY4p/YXkR8UY2FVWyap
OKPM99V14TF5qIP8tppGjsHWSc2/TXn05TnnpcJdsqjJ6iFFR4AfEXYAvLvpEDJu
7uEQFxzegrO0RzKXehdwIhE7kEefuYqq75Svowlfra1qhkn7XOHeBlgqyX/eq7SN
3ocnCAELNefcs3fehJcXJ/ACl3jogGxU2kI6MusJPZB4+duYueu+GbT8Fv0PLngh
X56Er/u5JVNgAPHgVVWWa/Oi76Wa74iSwkmd1xPyn+nSkgol2MD6OwFqlh6x8Y9x
hOPzNDUUP8S7/6JToOtJ0k6/Yd4RWLOiKNsSMTLH1LPY4e4=
-----END CERTIFICATE-----
