Certificate:
    Data:
        Version: 3 (0x2)
        Serial Number: 4098 (0x1002)
        Signature Algorithm: sha256WithRSAEncryption
        Issuer: CN=www.modelCA.com, O=Model CA LTD., C=US
        Validity
            Not Before: Nov  4 08:51:39 2023 GMT
            Not After : Nov  1 08:51:39 2033 GMT
        Subject: C=US, O=Banerjee2023 Inc., CN=www.banerjee2023.com
        Subject Public Key Info:
            Public Key Algorithm: rsaEncryption
                RSA Public-Key: (2048 bit)
                Modulus:
                    00:aa:9a:c2:fa:1e:2d:e3:da:43:48:ac:fb:35:7f:
                    2b:ca:4e:eb:25:dd:a7:14:71:61:02:20:bf:7b:11:
                    d4:5b:c3:b6:f0:61:3a:1c:d6:ef:5e:64:f3:96:94:
                    02:2c:94:3f:f8:e2:24:98:2a:af:6a:30:a3:d6:63:
                    bf:5b:a3:b8:38:df:2d:da:ac:60:bb:84:f5:7f:33:
                    03:d5:b0:86:5e:52:23:b9:e7:0c:d4:59:9b:18:86:
                    58:fe:22:a6:39:8c:19:cc:9b:19:14:96:5d:13:81:
                    b9:cf:fd:f5:17:0d:11:48:f9:13:be:40:eb:ab:3d:
                    cb:8c:b4:94:09:1c:41:a0:ea:a2:bc:14:b3:b0:b1:
                    c9:55:3e:b4:b6:73:c2:e4:ca:31:b7:0e:a5:ec:89:
                    e0:ca:e8:02:90:63:e9:48:8d:23:a0:b4:eb:85:20:
                    31:ce:c8:35:b1:2b:b0:8c:c2:9a:24:bd:3c:14:3a:
                    ea:84:9a:37:0e:bb:4d:ea:09:b1:e6:af:fa:c2:0d:
                    10:6b:84:6b:34:f1:aa:9f:af:c8:eb:5f:79:ec:1b:
                    a2:2e:49:f8:79:1c:a2:01:ef:98:83:35:46:48:13:
                    2b:da:e7:b6:2f:cf:b2:12:88:49:17:19:25:af:52:
                    2a:eb:f4:52:57:31:93:bc:d1:ab:9f:f4:ef:01:28:
                    5d:cb
                Exponent: 65537 (0x10001)
        X509v3 extensions:
            X509v3 Basic Constraints: 
                CA:FALSE
            Netscape Comment: 
                OpenSSL Generated Certificate
            X509v3 Subject Key Identifier: 
                C8:05:E4:74:4C:A3:9D:91:AA:2D:82:44:C8:2C:56:AA:0D:39:54:6A
            X509v3 Authority Key Identifier: 
                keyid:FD:81:8E:4C:FC:A2:AD:F2:65:05:88:EE:D0:E7:CF:36:B5:71:A2:99

            X509v3 Subject Alternative Name: 
                DNS:www.banerjee2023.com, DNS:www.banerjee2023A.com, DNS:www.banerjee2023B.com
    Signature Algorithm: sha256WithRSAEncryption
         00:48:6f:43:30:bb:f3:b7:ed:fc:62:cf:89:93:e2:8a:32:52:
         8f:09:98:1c:48:f2:8d:e8:f4:3c:5f:c8:31:1b:33:09:da:21:
         c1:e2:9f:0c:d5:ee:8c:c2:e9:60:c6:b2:6c:f0:9a:45:9a:08:
         d9:cf:77:b0:2a:4b:25:b9:d2:dd:b6:fc:fe:cc:35:dd:8a:1c:
         3a:2f:fc:e4:35:e2:e9:05:49:99:6c:92:28:74:47:d1:c8:5c:
         82:40:7b:39:d7:99:98:af:f9:1e:98:f1:2d:a4:31:a2:45:40:
         a3:20:55:c0:26:37:f4:a8:28:7c:c1:4c:3f:bb:2e:c0:e3:35:
         ba:eb:13:55:8e:3e:a4:8b:2f:e8:88:23:97:c8:a5:d7:53:34:
         1e:26:33:3b:0b:10:0e:19:03:18:31:d1:55:d6:9e:8a:cd:70:
         38:0b:6c:63:34:30:a0:4c:97:d6:6f:2b:c5:50:40:f9:f1:2c:
         59:0c:7d:0b:00:02:a9:b1:5b:9a:ee:72:15:a4:8a:3d:b9:05:
         b5:eb:9b:ae:20:bd:43:24:63:22:5a:b8:8a:59:89:4b:f8:4a:
         b3:a1:e4:46:ac:fd:27:cf:52:c7:65:90:f1:6e:12:93:96:84:
         59:c6:2b:1c:08:13:99:c6:0e:4b:26:c9:97:54:04:23:a3:ab:
         04:11:da:f8:8f:bf:1f:c0:3f:dd:65:ba:9b:3f:0a:0b:59:a6:
         83:6a:ba:d3:29:79:f3:b9:12:08:33:e4:f4:f3:db:8c:70:a9:
         e9:8a:33:c6:57:e3:a9:18:2a:fc:27:f3:7d:82:a5:78:32:52:
         95:f6:e7:0a:cc:ba:14:37:c5:68:6c:26:04:db:8e:ae:dd:51:
         63:65:9a:cd:fb:7d:64:e2:9b:fa:28:47:83:c4:4d:28:66:07:
         f7:66:e0:01:be:da:dd:59:77:e0:88:44:8f:b8:25:24:3d:5b:
         16:63:98:9e:d1:c8:45:3e:ee:e8:be:03:87:e6:46:2c:0b:f6:
         cd:aa:ac:83:85:ec:6e:ca:2c:61:2f:44:15:1b:59:f1:74:5a:
         87:b4:cb:6e:a4:4a:e2:bc:d9:a4:42:37:33:72:e5:7a:7d:75:
         fb:07:61:06:7a:b0:f4:62:43:8c:ea:11:5a:ec:aa:17:28:c0:
         d1:f7:2b:d3:d1:2d:c7:7d:cf:dd:a8:0c:e5:39:54:d1:b5:2e:
         d4:c3:44:83:49:91:71:f8:75:0b:96:02:fd:f9:bc:c9:cb:d3:
         a1:89:19:ba:5a:cd:4a:4b:7e:8c:f4:d3:ad:64:39:99:fb:df:
         8b:63:bb:fe:56:dd:c3:28:61:24:93:b3:37:d1:52:cb:be:aa:
         bc:fe:09:d7:42:04:48:14
-----BEGIN CERTIFICATE-----
MIIEzzCCAregAwIBAgICEAIwDQYJKoZIhvcNAQELBQAwPzEYMBYGA1UEAwwPd3d3
Lm1vZGVsQ0EuY29tMRYwFAYDVQQKDA1Nb2RlbCBDQSBMVEQuMQswCQYDVQQGEwJV
UzAeFw0yMzExMDQwODUxMzlaFw0zMzExMDEwODUxMzlaMEgxCzAJBgNVBAYTAlVT
MRowGAYDVQQKDBFCYW5lcmplZTIwMjMgSW5jLjEdMBsGA1UEAwwUd3d3LmJhbmVy
amVlMjAyMy5jb20wggEiMA0GCSqGSIb3DQEBAQUAA4IBDwAwggEKAoIBAQCqmsL6
Hi3j2kNIrPs1fyvKTusl3acUcWECIL97EdRbw7bwYToc1u9eZPOWlAIslD/44iSY
Kq9qMKPWY79bo7g43y3arGC7hPV/MwPVsIZeUiO55wzUWZsYhlj+IqY5jBnMmxkU
ll0TgbnP/fUXDRFI+RO+QOurPcuMtJQJHEGg6qK8FLOwsclVPrS2c8LkyjG3DqXs
ieDK6AKQY+lIjSOgtOuFIDHOyDWxK7CMwpokvTwUOuqEmjcOu03qCbHmr/rCDRBr
hGs08aqfr8jrX3nsG6IuSfh5HKIB75iDNUZIEyva57Yvz7ISiEkXGSWvUirr9FJX
MZO80auf9O8BKF3LAgMBAAGjgcswgcgwCQYDVR0TBAIwADAsBglghkgBhvhCAQ0E
HxYdT3BlblNTTCBHZW5lcmF0ZWQgQ2VydGlmaWNhdGUwHQYDVR0OBBYEFMgF5HRM
o52Rqi2CRMgsVqoNOVRqMB8GA1UdIwQYMBaAFP2Bjkz8oq3yZQWI7tDnzza1caKZ
ME0GA1UdEQRGMESCFHd3dy5iYW5lcmplZTIwMjMuY29tghV3d3cuYmFuZXJqZWUy
MDIzQS5jb22CFXd3dy5iYW5lcmplZTIwMjNCLmNvbTANBgkqhkiG9w0BAQsFAAOC
AgEAAEhvQzC787ft/GLPiZPiijJSjwmYHEjyjej0PF/IMRszCdohweKfDNXujMLp
YMaybPCaRZoI2c93sCpLJbnS3bb8/sw13YocOi/85DXi6QVJmWySKHRH0chcgkB7
OdeZmK/5HpjxLaQxokVAoyBVwCY39KgofMFMP7suwOM1uusTVY4+pIsv6Igjl8il
11M0HiYzOwsQDhkDGDHRVdaeis1wOAtsYzQwoEyX1m8rxVBA+fEsWQx9CwACqbFb
mu5yFaSKPbkFteubriC9QyRjIlq4ilmJS/hKs6HkRqz9J89Sx2WQ8W4Sk5aEWcYr
HAgTmcYOSybJl1QEI6OrBBHa+I+/H8A/3WW6mz8KC1mmg2q60yl587kSCDPk9PPb
jHCp6YozxlfjqRgq/CfzfYKleDJSlfbnCsy6FDfFaGwmBNuOrt1RY2Wazft9ZOKb
+ihHg8RNKGYH92bgAb7a3Vl34IhEj7glJD1bFmOYntHIRT7u6L4Dh+ZGLAv2zaqs
g4XsbsosYS9EFRtZ8XRah7TLbqRK4rzZpEI3M3Llen11+wdhBnqw9GJDjOoRWuyq
FyjA0fcr09Etx33P3agM5TlU0bUu1MNEg0mRcfh1C5YC/fm8ycvToYkZulrNSkt+
jPTTrWQ5mfvfi2O7/lbdwyhhJJOzN9FSy76qvP4J10IESBQ=
-----END CERTIFICATE-----
