Certificate:
    Data:
        Version: 3 (0x2)
        Serial Number: 4099 (0x1003)
        Signature Algorithm: sha256WithRSAEncryption
        Issuer: CN=www.modelCA.com, O=Model CA LTD., C=US
        Validity
            Not Before: Nov  4 08:59:46 2023 GMT
            Not After : Nov  1 08:59:46 2033 GMT
        Subject: C=US, O=Banerjee2023 Inc., CN=www.banerjee2023.com
        Subject Public Key Info:
            Public Key Algorithm: rsaEncryption
                RSA Public-Key: (2048 bit)
                Modulus:
                    00:ba:58:2a:22:3d:13:34:7c:5c:4e:3b:15:dd:e6:
                    bb:43:bb:9c:ef:17:d1:f4:db:b2:23:ea:26:b2:09:
                    ef:4a:8e:a0:bf:4e:dc:ab:2f:af:28:da:49:f3:bc:
                    13:2c:3b:8e:ac:c9:56:af:7f:4a:2b:4d:a7:cc:59:
                    6a:b7:e7:95:9c:ea:ba:40:85:b7:13:63:0c:fb:12:
                    96:a3:f6:b3:8b:2a:2a:45:37:01:47:a6:fd:fd:b2:
                    86:4c:c3:5f:72:19:13:95:e0:ae:22:5a:a0:f1:d7:
                    71:91:17:99:88:ae:43:9e:2a:fb:05:33:1e:4f:27:
                    11:43:59:cd:14:ca:a4:c3:15:ea:07:f4:6a:1e:2e:
                    5b:7a:f0:21:9c:3e:35:93:79:9c:b2:23:0b:90:e0:
                    8e:68:43:f8:79:c1:d4:86:46:4d:6e:64:e1:0b:db:
                    e7:89:58:95:62:f0:a6:87:de:cd:ee:88:13:bd:17:
                    e6:55:95:54:46:bb:56:19:36:4a:22:dc:c2:3d:5e:
                    dd:20:a5:b8:8c:58:3d:3e:f3:00:b3:23:ee:d1:2c:
                    e3:99:64:86:fd:c7:ae:2a:09:6a:91:b3:9c:07:e1:
                    f3:ba:cc:4d:01:87:4f:25:57:92:7e:00:a6:41:c2:
                    8a:dc:3a:ad:4c:8f:55:f3:39:7d:84:45:96:a6:79:
                    17:07
                Exponent: 65537 (0x10001)
        X509v3 extensions:
            X509v3 Basic Constraints: 
                CA:FALSE
            Netscape Comment: 
                OpenSSL Generated Certificate
            X509v3 Subject Key Identifier: 
                D5:71:00:02:C6:A8:10:FF:8B:BF:4E:15:06:57:BB:59:AB:F7:02:BF
            X509v3 Authority Key Identifier: 
                keyid:97:D4:35:25:31:5D:E4:10:C8:AA:99:5E:E4:F7:0C:A2:EC:C4:65:15

            X509v3 Subject Alternative Name: 
                DNS:www.banerjee2023.com, DNS:www.banerjee2023A.com, DNS:www.banerjee2023B.com
    Signature Algorithm: sha256WithRSAEncryption
         52:3f:0f:e7:a0:78:eb:46:11:97:bd:fc:a7:04:a1:ae:c2:f1:
         5a:58:de:f8:75:f8:e9:e9:77:2e:80:3f:bb:39:de:85:7d:26:
         b2:e6:2c:91:a8:ae:a8:88:a4:42:10:48:cb:a7:d1:e3:9b:8c:
         b9:53:a7:55:ea:94:2a:02:db:88:c6:0b:b7:fc:f0:1a:2f:c8:
         6b:45:f8:df:8f:3a:7e:98:da:4d:bc:cd:4d:8c:58:03:a2:8a:
         0c:3e:0a:d5:df:26:7f:a1:1e:74:13:87:34:12:6d:e8:a1:f1:
         94:51:92:41:6a:d9:08:dc:a6:10:97:4a:ae:13:33:cf:8f:ff:
         8d:8c:c9:41:72:f0:a6:83:d4:f7:de:01:bc:06:c3:cf:b8:1d:
         79:90:c3:ff:81:04:45:da:7f:0a:ed:10:47:b8:3f:4d:d6:cd:
         65:a1:94:a7:64:a5:8a:21:5f:76:98:ba:b7:85:48:6d:f8:f1:
         4d:5b:3c:89:70:2b:4b:f8:22:96:c5:50:ac:f2:94:7e:43:0b:
         11:3f:0b:88:11:d3:5a:39:5d:23:ff:bd:36:74:76:28:54:50:
         ff:4f:d1:40:14:fc:e6:22:fb:61:69:9a:37:36:cb:8b:f4:7a:
         0c:ff:90:4f:bb:0a:87:fb:f6:47:8e:08:54:37:bc:bc:db:a3:
         98:3c:d4:25:b5:9e:32:9a:03:65:f5:8a:ed:04:f1:03:8c:c1:
         c9:2a:99:a9:a1:6c:40:54:93:9d:08:0d:6d:bd:82:00:d4:56:
         94:f5:c6:1d:a9:10:c1:ed:90:8f:fb:b2:fb:6d:f4:c4:25:ce:
         12:db:c5:b7:8a:4d:bb:c3:61:13:bb:db:6b:65:54:63:3a:77:
         90:23:f5:1c:3f:67:c2:54:b8:65:c4:df:6f:5c:3a:86:8c:c1:
         50:8f:54:cf:b0:88:15:5b:b7:cc:7a:7d:64:9f:50:a6:d5:5c:
         23:77:a9:16:80:4d:53:11:ea:21:c3:85:33:6b:92:eb:21:f8:
         a2:97:a5:d7:54:87:93:09:7c:74:84:c7:56:cc:bb:71:1f:4e:
         33:e3:5d:53:87:b6:cc:4e:1c:c4:dc:ea:fc:d7:40:d7:e6:3a:
         57:4c:c3:82:14:c1:51:6d:19:12:ac:d5:74:62:20:90:21:c9:
         00:27:14:81:a8:f1:f1:ed:47:f4:5e:57:9d:34:9c:eb:6c:a5:
         fa:d4:ed:fd:c5:65:22:e0:04:b9:03:a3:73:a9:f6:55:49:2e:
         94:6d:7f:e2:f2:d7:d5:69:12:89:e3:81:40:bd:6a:7b:3b:89:
         18:2b:d3:e0:c9:7f:c9:50:f3:f7:57:a2:20:6b:65:0d:51:3d:
         fc:32:2d:81:02:1b:ea:20
-----BEGIN CERTIFICATE-----
MIIEzzCCAregAwIBAgICEAMwDQYJKoZIhvcNAQELBQAwPzEYMBYGA1UEAwwPd3d3
Lm1vZGVsQ0EuY29tMRYwFAYDVQQKDA1Nb2RlbCBDQSBMVEQuMQswCQYDVQQGEwJV
UzAeFw0yMzExMDQwODU5NDZaFw0zMzExMDEwODU5NDZaMEgxCzAJBgNVBAYTAlVT
MRowGAYDVQQKDBFCYW5lcmplZTIwMjMgSW5jLjEdMBsGA1UEAwwUd3d3LmJhbmVy
amVlMjAyMy5jb20wggEiMA0GCSqGSIb3DQEBAQUAA4IBDwAwggEKAoIBAQC6WCoi
PRM0fFxOOxXd5rtDu5zvF9H027Ij6iayCe9KjqC/TtyrL68o2knzvBMsO46syVav
f0orTafMWWq355Wc6rpAhbcTYwz7Epaj9rOLKipFNwFHpv39soZMw19yGROV4K4i
WqDx13GRF5mIrkOeKvsFMx5PJxFDWc0UyqTDFeoH9GoeLlt68CGcPjWTeZyyIwuQ
4I5oQ/h5wdSGRk1uZOEL2+eJWJVi8KaH3s3uiBO9F+ZVlVRGu1YZNkoi3MI9Xt0g
pbiMWD0+8wCzI+7RLOOZZIb9x64qCWqRs5wH4fO6zE0Bh08lV5J+AKZBworcOq1M
j1XzOX2ERZameRcHAgMBAAGjgcswgcgwCQYDVR0TBAIwADAsBglghkgBhvhCAQ0E
HxYdT3BlblNTTCBHZW5lcmF0ZWQgQ2VydGlmaWNhdGUwHQYDVR0OBBYEFNVxAALG
qBD/i79OFQZXu1mr9wK/MB8GA1UdIwQYMBaAFJfUNSUxXeQQyKqZXuT3DKLsxGUV
ME0GA1UdEQRGMESCFHd3dy5iYW5lcmplZTIwMjMuY29tghV3d3cuYmFuZXJqZWUy
MDIzQS5jb22CFXd3dy5iYW5lcmplZTIwMjNCLmNvbTANBgkqhkiG9w0BAQsFAAOC
AgEAUj8P56B460YRl738pwShrsLxWlje+HX46el3LoA/uznehX0msuYskaiuqIik
QhBIy6fR45uMuVOnVeqUKgLbiMYLt/zwGi/Ia0X43486fpjaTbzNTYxYA6KKDD4K
1d8mf6EedBOHNBJt6KHxlFGSQWrZCNymEJdKrhMzz4//jYzJQXLwpoPU994BvAbD
z7gdeZDD/4EERdp/Cu0QR7g/TdbNZaGUp2SliiFfdpi6t4VIbfjxTVs8iXArS/gi
lsVQrPKUfkMLET8LiBHTWjldI/+9NnR2KFRQ/0/RQBT85iL7YWmaNzbLi/R6DP+Q
T7sKh/v2R44IVDe8vNujmDzUJbWeMpoDZfWK7QTxA4zBySqZqaFsQFSTnQgNbb2C
ANRWlPXGHakQwe2Qj/uy+230xCXOEtvFt4pNu8NhE7vba2VUYzp3kCP1HD9nwlS4
ZcTfb1w6hozBUI9Uz7CIFVu3zHp9ZJ9QptVcI3epFoBNUxHqIcOFM2uS6yH4opel
11SHkwl8dITHVsy7cR9OM+NdU4e2zE4cxNzq/NdA1+Y6V0zDghTBUW0ZEqzVdGIg
kCHJACcUgajx8e1H9F5XnTSc62yl+tTt/cVlIuAEuQOjc6n2VUkulG1/4vLX1WkS
ieOBQL1qezuJGCvT4Ml/yVDz91eiIGtlDVE9/DItgQIb6iA=
-----END CERTIFICATE-----
