Certificate:
    Data:
        Version: 3 (0x2)
        Serial Number: 4100 (0x1004)
        Signature Algorithm: sha256WithRSAEncryption
        Issuer: CN=www.modelCA.com, O=Model CA LTD., C=US
        Validity
            Not Before: Nov  4 09:06:32 2023 GMT
            Not After : Nov  1 09:06:32 2033 GMT
        Subject: C=US, O=MyInstagram Inc., CN=www.instagram.com
        Subject Public Key Info:
            Public Key Algorithm: rsaEncryption
                RSA Public-Key: (2048 bit)
                Modulus:
                    00:d2:d7:70:43:78:2b:17:84:03:c9:11:a8:36:c8:
                    70:89:3a:69:43:98:08:b5:17:4e:9e:73:f2:14:45:
                    78:1f:1c:86:ee:e0:00:0b:eb:91:ed:0c:27:ed:c9:
                    6b:5a:93:11:38:f3:13:3a:9a:0b:af:d6:ae:8e:f0:
                    4a:19:20:fe:1f:5b:c7:57:ac:51:40:43:67:33:c8:
                    5d:93:49:f1:f9:dd:b7:6f:92:ff:d3:0a:36:be:aa:
                    b2:0e:86:04:2e:3c:3f:f9:71:e6:27:ae:20:4b:4d:
                    76:04:cc:83:75:c4:52:5c:ed:e1:ea:4f:4c:a9:bb:
                    6e:15:c7:c4:a5:d8:3a:78:cf:81:0e:29:1f:ac:0b:
                    70:4e:07:8d:2f:7b:9a:92:b5:0e:09:a4:38:fd:82:
                    2f:62:3b:e0:dc:e4:11:b8:0c:c1:cf:65:a6:9d:97:
                    c6:d9:4a:eb:85:ce:19:d4:d2:2a:47:90:4e:67:99:
                    2c:de:65:46:a0:37:7f:91:97:54:bc:3c:01:72:ad:
                    e6:95:90:2e:9e:b9:4e:23:56:0e:ba:84:7b:35:bf:
                    32:ab:ef:7b:9d:03:d1:92:8a:8f:b5:b9:32:2b:7c:
                    c7:7d:19:a1:c5:ae:47:65:58:8d:ac:5b:dd:5c:cb:
                    34:3d:fd:93:16:6d:ae:eb:dc:12:63:2e:5a:f1:e4:
                    36:11
                Exponent: 65537 (0x10001)
        X509v3 extensions:
            X509v3 Basic Constraints: 
                CA:FALSE
            Netscape Comment: 
                OpenSSL Generated Certificate
            X509v3 Subject Key Identifier: 
                74:86:30:91:C9:6E:45:45:F5:EE:A6:D3:8E:F9:89:16:57:F3:83:96
            X509v3 Authority Key Identifier: 
                keyid:44:EE:67:98:4A:31:D4:3E:F0:3E:11:D2:DF:D6:72:51:F9:FD:0E:0F

    Signature Algorithm: sha256WithRSAEncryption
         1b:e8:1d:07:4e:3d:bc:1b:45:76:09:a6:9d:06:91:d1:3e:65:
         48:5e:56:fd:93:f8:07:6b:3e:92:98:33:4e:79:8f:48:9c:ff:
         b4:f9:dd:93:1d:70:17:aa:c1:53:c0:c2:f1:f0:65:f8:45:b1:
         1d:21:0f:1f:4c:6a:87:ce:05:7c:3b:e5:0f:b2:9f:fa:66:df:
         c1:db:c8:f2:15:9e:ca:94:57:74:2b:48:01:2a:b4:a8:75:bf:
         92:9c:f4:72:d1:d9:0d:4f:dd:a2:a7:76:cf:79:cc:61:b4:ce:
         43:55:7d:8d:d5:10:20:ba:bf:13:c3:82:6d:c8:d1:8a:b2:a2:
         bf:c2:4a:e7:6f:68:c1:23:fb:c3:e8:fc:ec:e8:0a:e4:23:04:
         f3:f3:85:78:39:b2:1e:3d:53:90:74:1c:8b:d7:a7:b8:86:09:
         89:a5:f8:66:98:fb:5f:07:8e:d0:0b:b9:bb:59:a9:48:31:70:
         4f:01:c0:6c:a7:48:6e:4f:82:9f:31:d7:c8:11:69:40:7c:54:
         ac:fe:26:c5:a6:2f:27:f5:bd:b7:c8:e5:62:07:6f:ac:b0:d3:
         94:fe:23:45:bf:d5:aa:51:e9:dd:1c:a7:31:a4:7f:1f:aa:91:
         d3:66:75:85:c5:ab:73:06:38:f2:36:a5:c9:5e:8f:29:fe:f8:
         e0:e5:8c:84:0f:8d:0e:8f:d6:53:0c:02:aa:e5:da:e4:d0:a5:
         c9:28:e2:66:d2:dc:65:f7:1b:b7:ef:01:1a:70:17:ce:8d:6f:
         14:34:86:c8:20:cc:66:90:6b:76:45:99:18:eb:11:ee:28:57:
         27:7f:8f:cd:04:17:42:3a:7d:5b:0c:3b:2a:68:c0:1b:08:bb:
         18:47:53:6b:c1:8e:bc:d9:47:d5:b1:f2:e2:6d:4c:34:8d:8e:
         81:4c:42:fe:c4:72:c1:b6:d8:e3:56:35:08:1f:cb:1d:8b:66:
         de:4c:29:1b:46:62:02:ab:22:37:06:60:aa:d1:0a:b6:53:0e:
         99:db:5d:a5:9a:2a:1c:1e:88:a8:9c:7a:62:8e:28:45:1e:f5:
         0a:c0:a6:ff:b5:29:81:72:48:60:85:f2:b9:57:2f:6d:1f:d3:
         9e:45:33:f1:98:87:0c:74:2b:58:68:36:43:ae:ea:a0:aa:34:
         3e:74:99:34:cf:37:7f:af:56:a2:9f:60:00:65:b0:88:2f:0c:
         6e:12:0c:89:bd:47:13:de:47:21:93:57:31:39:d2:d7:de:81:
         aa:e9:ab:66:c0:ae:aa:41:64:8b:68:15:26:9d:38:eb:bc:1f:
         cc:fb:fa:7a:07:34:dc:63:1f:a9:e2:9c:c8:0a:fc:89:a8:75:
         2c:71:16:af:48:ba:d8:db
-----BEGIN CERTIFICATE-----
MIIEejCCAmKgAwIBAgICEAQwDQYJKoZIhvcNAQELBQAwPzEYMBYGA1UEAwwPd3d3
Lm1vZGVsQ0EuY29tMRYwFAYDVQQKDA1Nb2RlbCBDQSBMVEQuMQswCQYDVQQGEwJV
UzAeFw0yMzExMDQwOTA2MzJaFw0zMzExMDEwOTA2MzJaMEQxCzAJBgNVBAYTAlVT
MRkwFwYDVQQKDBBNeUluc3RhZ3JhbSBJbmMuMRowGAYDVQQDDBF3d3cuaW5zdGFn
cmFtLmNvbTCCASIwDQYJKoZIhvcNAQEBBQADggEPADCCAQoCggEBANLXcEN4KxeE
A8kRqDbIcIk6aUOYCLUXTp5z8hRFeB8chu7gAAvrke0MJ+3Ja1qTETjzEzqaC6/W
ro7wShkg/h9bx1esUUBDZzPIXZNJ8fndt2+S/9MKNr6qsg6GBC48P/lx5ieuIEtN
dgTMg3XEUlzt4epPTKm7bhXHxKXYOnjPgQ4pH6wLcE4HjS97mpK1DgmkOP2CL2I7
4NzkEbgMwc9lpp2XxtlK64XOGdTSKkeQTmeZLN5lRqA3f5GXVLw8AXKt5pWQLp65
TiNWDrqEezW/Mqvve50D0ZKKj7W5Mit8x30ZocWuR2VYjaxb3VzLND39kxZtruvc
EmMuWvHkNhECAwEAAaN7MHkwCQYDVR0TBAIwADAsBglghkgBhvhCAQ0EHxYdT3Bl
blNTTCBHZW5lcmF0ZWQgQ2VydGlmaWNhdGUwHQYDVR0OBBYEFHSGMJHJbkVF9e6m
0475iRZX84OWMB8GA1UdIwQYMBaAFETuZ5hKMdQ+8D4R0t/WclH5/Q4PMA0GCSqG
SIb3DQEBCwUAA4ICAQAb6B0HTj28G0V2CaadBpHRPmVIXlb9k/gHaz6SmDNOeY9I
nP+0+d2THXAXqsFTwMLx8GX4RbEdIQ8fTGqHzgV8O+UPsp/6Zt/B28jyFZ7KlFd0
K0gBKrSodb+SnPRy0dkNT92ip3bPecxhtM5DVX2N1RAgur8Tw4JtyNGKsqK/wkrn
b2jBI/vD6Pzs6ArkIwTz84V4ObIePVOQdByL16e4hgmJpfhmmPtfB47QC7m7WalI
MXBPAcBsp0huT4KfMdfIEWlAfFSs/ibFpi8n9b23yOViB2+ssNOU/iNFv9WqUend
HKcxpH8fqpHTZnWFxatzBjjyNqXJXo8p/vjg5YyED40Oj9ZTDAKq5drk0KXJKOJm
0txl9xu37wEacBfOjW8UNIbIIMxmkGt2RZkY6xHuKFcnf4/NBBdCOn1bDDsqaMAb
CLsYR1NrwY682UfVsfLibUw0jY6BTEL+xHLBttjjVjUIH8sdi2beTCkbRmICqyI3
BmCq0Qq2Uw6Z212lmiocHoionHpijihFHvUKwKb/tSmBckhghfK5Vy9tH9OeRTPx
mIcMdCtYaDZDruqgqjQ+dJk0zzd/r1ain2AAZbCILwxuEgyJvUcT3kchk1cxOdLX
3oGq6atmwK6qQWSLaBUmnTjrvB/M+/p6BzTcYx+p4pzICvyJqHUscRavSLrY2w==
-----END CERTIFICATE-----
