Certificate:
    Data:
        Version: 3 (0x2)
        Serial Number: 4101 (0x1005)
        Signature Algorithm: sha256WithRSAEncryption
        Issuer: CN=www.modelCA.com, O=Model CA LTD., C=US
        Validity
            Not Before: Nov  4 16:17:33 2023 GMT
            Not After : Nov  1 16:17:33 2033 GMT
        Subject: C=US, O=Banerjee2023 Inc., CN=www.banerjee2023.com
        Subject Public Key Info:
            Public Key Algorithm: rsaEncryption
                RSA Public-Key: (2048 bit)
                Modulus:
                    00:aa:88:c6:77:e8:79:c2:ca:02:d9:2d:eb:7f:8d:
                    e1:1b:7f:ab:3b:b8:6a:21:a0:ad:fa:0e:ec:e0:13:
                    ac:7c:50:95:47:8f:66:c7:70:78:2f:27:8f:a9:c1:
                    40:51:6d:d3:5e:0d:8b:5d:26:f8:66:e6:f4:9a:a3:
                    fb:85:ce:54:10:a1:fa:ec:23:13:dc:1b:ce:39:72:
                    cb:71:4a:d4:d4:d6:ba:32:37:63:3f:93:ec:ba:fa:
                    9c:6b:7d:ed:09:f6:0e:d4:86:f9:ea:c7:68:23:c2:
                    b5:57:64:79:a3:88:96:31:a3:7c:d4:4f:c7:57:00:
                    a0:1d:da:31:cf:c7:46:69:2e:6b:81:fb:64:56:54:
                    5e:ef:14:4a:e8:94:fb:d5:3e:12:59:af:3b:bd:b0:
                    7c:dd:43:31:e5:1a:b8:c1:85:49:ff:50:6b:43:78:
                    73:31:4e:e9:d2:ae:2a:ab:62:34:0d:7f:06:98:8b:
                    b0:66:6e:e8:29:8e:52:8b:ce:23:a1:bb:20:17:56:
                    93:c2:2e:9b:e9:38:ab:73:ae:fe:c0:6d:9e:e8:16:
                    26:09:f7:13:ef:85:1a:41:4c:b2:d5:c2:24:a9:e0:
                    5d:22:4f:02:a3:3b:2d:29:1c:a3:61:6a:20:a6:b3:
                    4e:f9:7a:78:ca:c6:e5:e8:dc:01:46:be:f0:3d:ce:
                    b6:df
                Exponent: 65537 (0x10001)
        X509v3 extensions:
            X509v3 Basic Constraints: 
                CA:FALSE
            Netscape Comment: 
                OpenSSL Generated Certificate
            X509v3 Subject Key Identifier: 
                84:95:A4:30:65:10:B6:F2:2D:2C:C1:25:CA:AA:4C:39:14:55:1E:91
            X509v3 Authority Key Identifier: 
                keyid:80:A3:28:EF:8F:FB:2A:59:A5:70:C0:B5:25:7F:74:EC:34:7A:99:EA

    Signature Algorithm: sha256WithRSAEncryption
         8f:c4:83:f9:83:ff:f6:da:a8:cf:23:5b:1d:a2:e5:c8:05:21:
         25:9b:ad:4b:9d:2e:11:09:80:7e:40:d3:2a:22:c8:8a:8f:69:
         87:56:09:23:be:d9:08:1b:7f:9f:8b:17:6b:35:b9:2f:14:67:
         7d:cb:50:1b:8e:d8:f5:ba:c5:a7:11:95:4e:93:87:73:2a:49:
         38:73:9d:42:8e:ea:84:cc:49:d9:a0:aa:b9:92:da:00:e8:a7:
         75:f1:97:1b:7a:69:55:57:96:42:2b:25:2d:e2:6c:6f:8f:dc:
         5c:74:0a:b8:0c:64:ba:b0:06:0a:fd:4c:0f:f1:de:d6:ae:b2:
         e9:07:30:a2:70:2c:69:f4:ac:b4:25:b2:d2:80:d3:96:9b:6d:
         cf:f9:f4:53:c8:25:d8:61:12:ba:b8:f2:bf:40:5c:fa:c6:88:
         fa:f1:c9:6b:7c:54:78:a9:58:fc:ba:e4:ea:bd:80:77:f3:ac:
         6d:2a:db:59:fa:05:8b:1c:d3:2d:7b:82:55:01:0b:8b:c9:f4:
         00:1a:ba:d1:22:26:e5:8e:c4:07:c5:77:be:cf:6b:ed:be:c0:
         1a:3f:11:94:76:fb:b3:ed:f2:17:81:c8:f1:8d:1b:76:94:de:
         c6:69:2d:53:49:36:7a:e3:a0:f3:96:72:a8:cc:64:42:bc:7c:
         0a:0f:56:ed:f5:bc:e6:44:8b:6f:cd:38:b3:0e:0c:9d:d8:da:
         4f:6c:84:2d:b7:98:d8:ef:85:8c:57:81:80:51:a5:ef:59:ed:
         02:94:8f:b8:37:02:2b:f6:67:62:97:6e:ad:a8:9b:7e:19:81:
         d9:03:fb:72:d3:48:45:51:ea:35:37:44:ba:6c:10:1c:f6:14:
         ca:1d:2d:e0:33:a4:ec:79:c7:98:09:92:1a:81:30:d7:ac:41:
         39:40:13:dc:6e:59:d1:fe:3e:d2:76:fd:ce:91:fa:56:81:29:
         40:29:0c:a2:a1:32:a4:a8:2e:5f:47:80:f3:27:0f:aa:d0:c0:
         a6:cb:f8:05:c4:ae:e5:28:90:f0:ff:06:17:79:b4:0a:f1:39:
         6c:d6:11:6f:c2:ae:df:79:60:1b:37:dd:25:13:c3:cd:93:dc:
         e6:31:ab:0e:66:6c:97:a6:4b:9f:c1:94:90:fe:44:55:80:4f:
         2a:58:0a:2c:ce:43:8c:32:29:d3:f8:ad:e9:00:bb:7e:5d:e0:
         07:d0:44:49:a7:5a:4b:e5:f0:20:67:8f:3e:fe:cf:b5:64:13:
         eb:53:a7:b4:2e:35:01:20:1a:72:b0:26:25:4b:83:b5:3b:c1:
         80:28:15:43:14:b4:1b:18:bf:cb:d1:01:82:92:73:0b:36:c7:
         61:b4:f1:58:e6:41:f5:39
-----BEGIN CERTIFICATE-----
MIIEfjCCAmagAwIBAgICEAUwDQYJKoZIhvcNAQELBQAwPzEYMBYGA1UEAwwPd3d3
Lm1vZGVsQ0EuY29tMRYwFAYDVQQKDA1Nb2RlbCBDQSBMVEQuMQswCQYDVQQGEwJV
UzAeFw0yMzExMDQxNjE3MzNaFw0zMzExMDExNjE3MzNaMEgxCzAJBgNVBAYTAlVT
MRowGAYDVQQKDBFCYW5lcmplZTIwMjMgSW5jLjEdMBsGA1UEAwwUd3d3LmJhbmVy
amVlMjAyMy5jb20wggEiMA0GCSqGSIb3DQEBAQUAA4IBDwAwggEKAoIBAQCqiMZ3
6HnCygLZLet/jeEbf6s7uGohoK36DuzgE6x8UJVHj2bHcHgvJ4+pwUBRbdNeDYtd
Jvhm5vSao/uFzlQQofrsIxPcG845cstxStTU1royN2M/k+y6+pxrfe0J9g7Uhvnq
x2gjwrVXZHmjiJYxo3zUT8dXAKAd2jHPx0ZpLmuB+2RWVF7vFErolPvVPhJZrzu9
sHzdQzHlGrjBhUn/UGtDeHMxTunSriqrYjQNfwaYi7BmbugpjlKLziOhuyAXVpPC
LpvpOKtzrv7AbZ7oFiYJ9xPvhRpBTLLVwiSp4F0iTwKjOy0pHKNhaiCms075enjK
xuXo3AFGvvA9zrbfAgMBAAGjezB5MAkGA1UdEwQCMAAwLAYJYIZIAYb4QgENBB8W
HU9wZW5TU0wgR2VuZXJhdGVkIENlcnRpZmljYXRlMB0GA1UdDgQWBBSElaQwZRC2
8i0swSXKqkw5FFUekTAfBgNVHSMEGDAWgBSAoyjvj/sqWaVwwLUlf3TsNHqZ6jAN
BgkqhkiG9w0BAQsFAAOCAgEAj8SD+YP/9tqozyNbHaLlyAUhJZutS50uEQmAfkDT
KiLIio9ph1YJI77ZCBt/n4sXazW5LxRnfctQG47Y9brFpxGVTpOHcypJOHOdQo7q
hMxJ2aCquZLaAOindfGXG3ppVVeWQislLeJsb4/cXHQKuAxkurAGCv1MD/He1q6y
6QcwonAsafSstCWy0oDTlpttz/n0U8gl2GESurjyv0Bc+saI+vHJa3xUeKlY/Lrk
6r2Ad/OsbSrbWfoFixzTLXuCVQELi8n0ABq60SIm5Y7EB8V3vs9r7b7AGj8RlHb7
s+3yF4HI8Y0bdpTexmktU0k2euOg85ZyqMxkQrx8Cg9W7fW85kSLb804sw4Mndja
T2yELbeY2O+FjFeBgFGl71ntApSPuDcCK/ZnYpduraibfhmB2QP7ctNIRVHqNTdE
umwQHPYUyh0t4DOk7HnHmAmSGoEw16xBOUAT3G5Z0f4+0nb9zpH6VoEpQCkMoqEy
pKguX0eA8ycPqtDApsv4BcSu5SiQ8P8GF3m0CvE5bNYRb8Ku33lgGzfdJRPDzZPc
5jGrDmZsl6ZLn8GUkP5EVYBPKlgKLM5DjDIp0/it6QC7fl3gB9BESadaS+XwIGeP
Pv7PtWQT61OntC41ASAacrAmJUuDtTvBgCgVQxS0Gxi/y9EBgpJzCzbHYbTxWOZB
9Tk=
-----END CERTIFICATE-----
