Certificate:
    Data:
        Version: 3 (0x2)
        Serial Number: 0 (0x0)
        Signature Algorithm: sha256WithRSAEncryption
        Issuer: C=US, ST=Virginia, L=Fairfax, O=GMU, OU=CS, CN=joel2023/emailAddress=jsamson6@gmu.edu
        Validity
            Not Before: Oct 31 01:43:59 2023 GMT
            Not After : Oct 28 01:43:59 2033 GMT
        Subject: C=US, O=joel2023 Inc., CN=www.joel2023.com
        Subject Public Key Info:
            Public Key Algorithm: rsaEncryption
                Public-Key: (2048 bit)
                Modulus:
                    00:ae:fc:b9:cb:31:9a:13:12:47:1a:53:e3:62:eb:
                    f0:a3:58:16:f9:9a:80:e2:9e:05:d5:df:bc:3e:4e:
                    84:8b:60:8b:f1:0b:cb:85:1a:ff:91:e0:9f:f7:56:
                    dd:ea:ae:26:5d:25:2a:3f:bd:26:c7:83:1f:47:91:
                    a3:45:f6:02:85:40:b4:4b:bf:c1:f9:1f:3b:dc:df:
                    af:f0:65:13:fe:63:8d:27:a3:3a:c8:e5:3f:ae:b2:
                    57:4b:5c:ec:0e:7d:34:a7:0c:82:6c:d5:06:8d:4c:
                    c1:54:c4:2e:b7:0d:27:e6:64:8e:51:29:4d:17:b9:
                    ca:b6:0c:3a:3f:fc:a3:a3:88:6b:7c:b5:8e:12:0d:
                    54:f4:ed:f9:66:e1:74:c9:c0:5d:99:43:bb:47:0f:
                    84:84:61:fd:97:91:92:cc:ab:93:2b:2a:1e:b5:0b:
                    ac:56:ea:06:e6:e3:a3:aa:7c:28:1b:17:66:1c:0d:
                    f1:62:a0:27:39:f4:e9:60:85:d2:c5:24:84:25:65:
                    f7:99:95:bf:66:9b:aa:18:35:15:77:47:65:cd:07:
                    87:57:a4:10:28:ee:0a:dc:01:98:26:64:ec:0e:0c:
                    71:f6:73:55:ce:61:07:e5:89:93:18:06:21:49:db:
                    75:41:33:e0:be:da:70:05:74:43:1b:50:cf:1f:3d:
                    8c:2b
                Exponent: 65537 (0x10001)
        X509v3 extensions:
            X509v3 Basic Constraints: 
                CA:FALSE
            X509v3 Subject Key Identifier: 
                F2:5A:F1:1E:3C:84:B4:E5:EB:94:85:4F:94:37:5D:D9:E1:1B:F3:7A
            X509v3 Authority Key Identifier: 
                94:CE:B9:9F:34:35:81:CF:0A:1A:FC:60:85:79:C8:6A:D4:3B:8C:D4
    Signature Algorithm: sha256WithRSAEncryption
    Signature Value:
        6a:8b:5c:a2:65:63:3f:36:e7:dd:ed:32:7d:9c:f1:5b:04:b0:
        34:8e:87:ee:e4:e9:fe:71:f5:68:8b:6f:c2:30:2f:da:c5:5c:
        19:0c:c1:cb:8f:a3:ce:09:be:e0:ad:f5:5e:d7:de:e9:ff:00:
        9f:1b:0f:89:ee:9e:0f:47:b5:ad:79:f5:3d:e1:70:5c:ed:91:
        02:c7:9f:ad:d3:3d:69:fa:6e:9a:7f:bb:72:38:5a:f8:fa:23:
        75:62:2e:55:76:70:b3:32:7c:7c:76:93:4d:87:3d:0d:1f:6c:
        70:59:7c:1e:ef:f2:aa:b0:6b:ed:3d:3d:90:18:d8:43:c8:13:
        d3:f5:a1:37:b9:0b:a2:42:82:fc:dc:4e:26:93:db:8e:1b:4f:
        a0:da:cd:90:35:9b:ad:96:88:06:33:8f:37:e0:62:5d:10:2d:
        c9:b7:ec:af:78:56:59:2e:39:55:13:e1:25:65:3f:fb:9b:e7:
        58:48:50:5b:17:ae:cb:49:12:e3:06:f5:28:45:39:f4:a5:12:
        cb:87:4f:5d:01:04:dc:91:4a:44:15:78:1e:eb:fa:33:04:86:
        47:39:2f:20:af:14:11:28:51:ea:81:fa:6e:2c:42:8e:db:a8:
        04:eb:5c:c9:ed:77:00:77:bf:cc:3b:a7:6d:dc:1b:a5:45:09:
        d5:3a:ed:60:77:cf:6c:a7:ad:47:d8:2f:2e:2b:da:6d:2b:26:
        6a:d7:cd:08:22:be:2c:ae:99:d2:c2:39:da:4a:bf:20:23:bc:
        b0:72:ca:75:78:7c:73:a9:0c:1d:a1:ef:ad:98:8b:2f:76:4b:
        5a:c6:70:7e:c0:d9:5d:aa:ed:2d:48:16:89:a8:37:49:8e:08:
        92:dd:b3:47:d6:97:d0:c1:7d:76:b0:4c:84:aa:7a:1c:2b:ce:
        10:a9:fd:33:b7:71:4c:aa:30:84:75:41:bf:85:7e:13:8b:7b:
        39:3c:24:cd:d5:fb:ae:5f:53:26:8e:9d:66:8d:a7:21:78:19:
        c5:1c:9a:03:8d:2b:78:b1:7c:bd:02:e0:c0:3e:92:41:0b:d6:
        c9:61:84:df:c8:a7:b5:8c:7c:50:3a:91:a1:63:2a:02:e9:87:
        a0:3a:cf:bf:f2:a7:04:99:fe:f3:68:dd:8a:e6:85:2f:e9:93:
        ff:b2:e6:35:57:d6:f3:1a:bf:ea:08:04:a8:2a:d6:56:6a:59:
        7b:b5:17:7d:39:63:d2:59:50:1f:9d:a8:6a:2c:c5:5b:3b:b3:
        e9:1e:cb:5d:e7:e3:13:9b:78:df:67:77:c6:b7:01:a9:1a:77:
        e3:7d:05:6f:f1:70:17:f6:4e:e7:b3:e0:79:37:c0:f3:ce:1b:
        87:bb:2e:e7:78:df:5e:fe
-----BEGIN CERTIFICATE-----
MIIEijCCAnKgAwIBAgIBADANBgkqhkiG9w0BAQsFADCBgTELMAkGA1UEBhMCVVMx
ETAPBgNVBAgMCFZpcmdpbmlhMRAwDgYDVQQHDAdGYWlyZmF4MQwwCgYDVQQKDANH
TVUxCzAJBgNVBAsMAkNTMREwDwYDVQQDDAhqb2VsMjAyMzEfMB0GCSqGSIb3DQEJ
ARYQanNhbXNvbjZAZ211LmVkdTAeFw0yMzEwMzEwMTQzNTlaFw0zMzEwMjgwMTQz
NTlaMEAxCzAJBgNVBAYTAlVTMRYwFAYDVQQKDA1qb2VsMjAyMyBJbmMuMRkwFwYD
VQQDDBB3d3cuam9lbDIwMjMuY29tMIIBIjANBgkqhkiG9w0BAQEFAAOCAQ8AMIIB
CgKCAQEArvy5yzGaExJHGlPjYuvwo1gW+ZqA4p4F1d+8Pk6Ei2CL8QvLhRr/keCf
91bd6q4mXSUqP70mx4MfR5GjRfYChUC0S7/B+R873N+v8GUT/mONJ6M6yOU/rrJX
S1zsDn00pwyCbNUGjUzBVMQutw0n5mSOUSlNF7nKtgw6P/yjo4hrfLWOEg1U9O35
ZuF0ycBdmUO7Rw+EhGH9l5GSzKuTKyoetQusVuoG5uOjqnwoGxdmHA3xYqAnOfTp
YIXSxSSEJWX3mZW/ZpuqGDUVd0dlzQeHV6QQKO4K3AGYJmTsDgxx9nNVzmEH5YmT
GAYhSdt1QTPgvtpwBXRDG1DPHz2MKwIDAQABo00wSzAJBgNVHRMEAjAAMB0GA1Ud
DgQWBBTyWvEePIS05euUhU+UN13Z4RvzejAfBgNVHSMEGDAWgBSUzrmfNDWBzwoa
/GCFechq1DuM1DANBgkqhkiG9w0BAQsFAAOCAgEAaotcomVjPzbn3e0yfZzxWwSw
NI6H7uTp/nH1aItvwjAv2sVcGQzBy4+jzgm+4K31Xtfe6f8AnxsPie6eD0e1rXn1
PeFwXO2RAsefrdM9afpumn+7cjha+PojdWIuVXZwszJ8fHaTTYc9DR9scFl8Hu/y
qrBr7T09kBjYQ8gT0/WhN7kLokKC/NxOJpPbjhtPoNrNkDWbrZaIBjOPN+BiXRAt
ybfsr3hWWS45VRPhJWU/+5vnWEhQWxeuy0kS4wb1KEU59KUSy4dPXQEE3JFKRBV4
Huv6MwSGRzkvIK8UEShR6oH6bixCjtuoBOtcye13AHe/zDunbdwbpUUJ1TrtYHfP
bKetR9gvLivabSsmatfNCCK+LK6Z0sI52kq/ICO8sHLKdXh8c6kMHaHvrZiLL3ZL
WsZwfsDZXartLUgWiag3SY4Ikt2zR9aX0MF9drBMhKp6HCvOEKn9M7dxTKowhHVB
v4V+E4t7OTwkzdX7rl9TJo6dZo2nIXgZxRyaA40reLF8vQLgwD6SQQvWyWGE38in
tYx8UDqRoWMqAumHoDrPv/KnBJn+82jdiuaFL+mT/7LmNVfW8xq/6ggEqCrWVmpZ
e7UXfTlj0llQH52oaizFWzuz6R7LXefjE5t432d3xrcBqRp3430Fb/FwF/ZO57Pg
eTfA884bh7su53jfXv4=
-----END CERTIFICATE-----
