Certificate:
    Data:
        Version: 3 (0x2)
        Serial Number: 1 (0x1)
        Signature Algorithm: sha256WithRSAEncryption
        Issuer: C=US, ST=Virginia, L=Fairfax, O=GMU, OU=CS, CN=joel2023/emailAddress=jsamson6@gmu.edu
        Validity
            Not Before: Oct 31 17:14:00 2023 GMT
            Not After : Oct 28 17:14:00 2033 GMT
        Subject: C=US, O=joel2023 Inc., CN=www.joel2023.com
        Subject Public Key Info:
            Public Key Algorithm: rsaEncryption
                Public-Key: (2048 bit)
                Modulus:
                    00:ae:c9:75:8d:6e:4f:ed:41:27:c8:6f:57:88:f8:
                    b9:82:2a:92:13:6f:c1:03:35:9e:06:7e:7d:92:87:
                    21:b6:eb:55:d3:5c:ae:1d:39:b5:9a:67:99:d0:b8:
                    ad:2f:01:b8:28:78:de:35:83:5d:08:a3:f3:7d:8b:
                    b9:1d:ca:21:60:c4:f5:ad:9b:db:f8:d1:19:4c:f6:
                    0e:4b:98:a3:54:24:e7:c3:e3:88:87:e9:09:79:74:
                    eb:8e:61:d7:0b:9a:4b:a4:25:d3:c4:43:03:c3:75:
                    c6:e1:17:f7:e6:f6:7b:9f:2c:89:c1:3f:ee:49:fa:
                    9a:ac:87:a0:99:90:b2:c2:71:a1:53:8f:10:aa:66:
                    93:3b:90:2d:59:47:02:63:4d:d9:c1:ef:94:c2:9c:
                    26:3c:46:4f:b0:44:1f:27:97:da:a2:1a:d6:58:5b:
                    0a:07:8c:cd:9f:05:6d:81:a7:4e:19:87:d0:34:05:
                    8d:e9:15:21:3d:86:e7:93:04:89:cc:a3:cf:1a:c4:
                    18:35:55:77:e6:a0:a4:3e:87:43:3e:64:d8:c3:9f:
                    f6:eb:04:b0:94:9e:4e:c3:34:91:dd:0d:f2:23:0b:
                    65:ed:41:44:c0:2b:dd:77:6c:f7:32:63:af:23:6b:
                    ab:4b:b5:24:86:65:41:58:83:89:ff:46:bd:40:9b:
                    ca:bd
                Exponent: 65537 (0x10001)
        X509v3 extensions:
            X509v3 Basic Constraints: 
                CA:FALSE
            X509v3 Subject Key Identifier: 
                44:6F:04:71:CF:A0:32:71:76:FA:E2:F2:A5:2A:81:43:9A:1A:63:6F
            X509v3 Authority Key Identifier: 
                94:CE:B9:9F:34:35:81:CF:0A:1A:FC:60:85:79:C8:6A:D4:3B:8C:D4
            X509v3 Subject Alternative Name: 
                DNS:www.joel2023.com, DNS:www.joel2023A.com, DNS:www.joel2023B.com
    Signature Algorithm: sha256WithRSAEncryption
    Signature Value:
        84:1f:c8:da:8a:7e:26:c9:d1:3f:cb:39:03:54:77:c2:48:a7:
        85:6f:c4:50:c0:bf:da:72:b7:f2:a3:c8:b1:72:f7:bc:81:a3:
        09:67:84:1a:90:f2:82:04:81:af:aa:12:6e:f9:06:82:b7:63:
        e4:a1:d2:7b:40:2a:e0:89:cf:ff:5f:e8:3b:c2:12:40:51:1a:
        9f:0e:25:06:05:12:64:5b:bf:78:e6:9e:c0:0c:f8:9d:fb:18:
        d3:29:ac:0b:f0:7f:27:9a:1a:83:38:7c:f6:ba:6a:cd:c8:d8:
        5f:50:56:a0:fd:d5:bd:c1:24:e7:12:2a:63:2b:18:6c:b7:87:
        bc:7b:0b:af:e8:9d:55:63:83:cf:41:ef:66:10:4a:74:9d:8a:
        b9:dc:8c:df:7a:d8:af:47:ff:2b:ca:47:d9:34:a0:e3:f6:96:
        94:30:d9:82:2b:4b:8b:c5:b8:e0:89:d3:a8:c4:95:8d:d8:ba:
        b8:f3:f0:ed:d9:40:58:f4:69:57:25:23:b8:c2:84:ba:53:1c:
        43:98:2e:5a:d1:68:b3:8c:83:1e:f0:25:28:80:15:c8:b5:c7:
        99:bc:69:9e:80:a1:11:6f:48:52:72:e0:9c:fe:aa:e3:1f:cb:
        b7:e9:56:b6:dd:fb:8c:60:09:33:31:ce:33:ff:12:19:7b:dc:
        00:11:de:05:be:7b:e1:ed:86:4b:ed:90:31:c8:f6:7c:01:cb:
        a9:0b:00:75:43:4a:50:9e:89:69:26:72:7d:b4:34:de:29:7b:
        15:fd:82:10:7e:10:e9:90:e5:15:44:84:15:e8:ad:8f:ac:b9:
        36:10:cc:d7:bd:6b:4b:bf:f6:ef:7b:23:cd:e5:e0:16:94:b4:
        ac:6d:d1:fd:39:38:ae:43:d6:15:eb:33:c7:59:b9:dc:5b:08:
        2d:b9:d6:d0:d4:d3:52:81:ba:f0:e9:52:4f:e1:be:4f:b6:8f:
        b8:7a:36:61:a1:b1:f8:b1:6f:34:ba:46:b6:3f:ab:cf:fc:f9:
        97:ec:b0:32:c2:ed:12:62:c4:b3:34:8b:d3:b7:a5:f5:dd:5c:
        61:ab:d3:40:91:8f:49:46:4f:d7:9a:cb:e1:7f:a4:9a:e8:2e:
        d4:9a:b5:32:74:df:a7:99:15:8b:6b:5e:f3:61:6b:bb:e7:6c:
        09:4d:a1:42:80:a0:67:a5:6c:f9:24:f8:43:df:8c:69:de:d5:
        05:c0:d9:51:52:f2:95:38:50:27:e4:bc:72:bf:72:4e:9b:18:
        5a:47:7a:26:4a:19:d0:12:0f:35:85:25:9d:b9:e8:19:12:53:
        f8:f0:32:8b:f6:dc:8f:e8:51:fc:a0:4f:bd:2e:d9:98:56:6c:
        5c:ec:ae:ce:ab:85:bf:f8
-----BEGIN CERTIFICATE-----
MIIEzzCCAregAwIBAgIBATANBgkqhkiG9w0BAQsFADCBgTELMAkGA1UEBhMCVVMx
ETAPBgNVBAgMCFZpcmdpbmlhMRAwDgYDVQQHDAdGYWlyZmF4MQwwCgYDVQQKDANH
TVUxCzAJBgNVBAsMAkNTMREwDwYDVQQDDAhqb2VsMjAyMzEfMB0GCSqGSIb3DQEJ
ARYQanNhbXNvbjZAZ211LmVkdTAeFw0yMzEwMzExNzE0MDBaFw0zMzEwMjgxNzE0
MDBaMEAxCzAJBgNVBAYTAlVTMRYwFAYDVQQKDA1qb2VsMjAyMyBJbmMuMRkwFwYD
VQQDDBB3d3cuam9lbDIwMjMuY29tMIIBIjANBgkqhkiG9w0BAQEFAAOCAQ8AMIIB
CgKCAQEArsl1jW5P7UEnyG9XiPi5giqSE2/BAzWeBn59kochtutV01yuHTm1mmeZ
0LitLwG4KHjeNYNdCKPzfYu5HcohYMT1rZvb+NEZTPYOS5ijVCTnw+OIh+kJeXTr
jmHXC5pLpCXTxEMDw3XG4Rf35vZ7nyyJwT/uSfqarIegmZCywnGhU48QqmaTO5At
WUcCY03Zwe+UwpwmPEZPsEQfJ5faohrWWFsKB4zNnwVtgadOGYfQNAWN6RUhPYbn
kwSJzKPPGsQYNVV35qCkPodDPmTYw5/26wSwlJ5OwzSR3Q3yIwtl7UFEwCvdd2z3
MmOvI2urS7UkhmVBWIOJ/0a9QJvKvQIDAQABo4GRMIGOMAkGA1UdEwQCMAAwHQYD
VR0OBBYEFERvBHHPoDJxdvri8qUqgUOaGmNvMB8GA1UdIwQYMBaAFJTOuZ80NYHP
Chr8YIV5yGrUO4zUMEEGA1UdEQQ6MDiCEHd3dy5qb2VsMjAyMy5jb22CEXd3dy5q
b2VsMjAyM0EuY29tghF3d3cuam9lbDIwMjNCLmNvbTANBgkqhkiG9w0BAQsFAAOC
AgEAhB/I2op+JsnRP8s5A1R3wkinhW/EUMC/2nK38qPIsXL3vIGjCWeEGpDyggSB
r6oSbvkGgrdj5KHSe0Aq4InP/1/oO8ISQFEanw4lBgUSZFu/eOaewAz4nfsY0yms
C/B/J5oagzh89rpqzcjYX1BWoP3VvcEk5xIqYysYbLeHvHsLr+idVWODz0HvZhBK
dJ2KudyM33rYr0f/K8pH2TSg4/aWlDDZgitLi8W44InTqMSVjdi6uPPw7dlAWPRp
VyUjuMKEulMcQ5guWtFos4yDHvAlKIAVyLXHmbxpnoChEW9IUnLgnP6q4x/Lt+lW
tt37jGAJMzHOM/8SGXvcABHeBb574e2GS+2QMcj2fAHLqQsAdUNKUJ6JaSZyfbQ0
3il7Ff2CEH4Q6ZDlFUSEFeitj6y5NhDM171rS7/273sjzeXgFpS0rG3R/Tk4rkPW
Feszx1m53FsILbnW0NTTUoG68OlST+G+T7aPuHo2YaGx+LFvNLpGtj+rz/z5l+yw
MsLtEmLEszSL07el9d1cYavTQJGPSUZP15rL4X+kmugu1Jq1MnTfp5kVi2te82Fr
u+dsCU2hQoCgZ6Vs+ST4Q9+Mad7VBcDZUVLylThQJ+S8cr9yTpsYWkd6JkoZ0BIP
NYUlnbnoGRJT+PAyi/bcj+hR/KBPvS7ZmFZsXOyuzquFv/g=
-----END CERTIFICATE-----
